target datalayout = "e-m:e-p270:32:32-p271:32:32-p272:64:64-i64:64-i128:128-f80:128-n8:16:32:64-S128"
target triple = "x86_64-pc-linux-gnu"

%struct.cbuf = type { %union.pthread_mutex_t, i32, i32, i32, i32, i32, i32, i32, i32, i32, i32, ptr }
%union.pthread_mutex_t = type { %struct.__pthread_mutex_s }
%struct.__pthread_mutex_s = type { i32, i32, i32, i32, i32, i16, i16, %struct.__pthread_internal_list }
%struct.__pthread_internal_list = type { ptr, ptr }

@.str.2 = private unnamed_addr constant [29 x i8] c"%s: pthread_mutex_lock(): %m\00", align 1
@.str.3 = private unnamed_addr constant [31 x i8] c"%s: pthread_mutex_unlock(): %m\00", align 1
@__func__.cbuf_rewind_line = private unnamed_addr constant [17 x i8] c"cbuf_rewind_line\00", align 1

; Function Attrs: nounwind uwtable
define dso_local i32 @cbuf_rewind_line(ptr noundef %0, i32 noundef %1, i32 noundef %2) #0 {
  %4 = alloca i32, align 4
  %5 = alloca ptr, align 8
  %6 = alloca i32, align 4
  %7 = alloca i32, align 4
  %8 = alloca i32, align 4
  %9 = alloca i32, align 4
  %10 = alloca i32, align 4
  %11 = alloca i32, align 4
  store ptr %0, ptr %5, align 8
  store i32 %1, ptr %6, align 4
  store i32 %2, ptr %7, align 4
  call void @llvm.lifetime.start.p0(i64 4, ptr %8) #8
  %12 = load i32, ptr %6, align 4
  %13 = icmp slt i32 %12, 0
  br i1 %13, label %17, label %14

14:                                               ; preds = %3
  %15 = load i32, ptr %7, align 4
  %16 = icmp slt i32 %15, -1
  br i1 %16, label %17, label %19

17:                                               ; preds = %14, %3
  %18 = call ptr @__errno_location() #9
  store i32 22, ptr %18, align 4
  store i32 -1, ptr %4, align 4
  store i32 1, ptr %9, align 4
  br label %78

19:                                               ; preds = %14
  %20 = load i32, ptr %7, align 4
  %21 = icmp eq i32 %20, 0
  br i1 %21, label %22, label %23

22:                                               ; preds = %19
  store i32 0, ptr %4, align 4
  store i32 1, ptr %9, align 4
  br label %78

23:                                               ; preds = %19
  br label %24

24:                                               ; preds = %23
  call void @llvm.lifetime.start.p0(i64 4, ptr %10) #8
  %25 = load ptr, ptr %5, align 8
  %26 = getelementptr inbounds nuw %struct.cbuf, ptr %25, i32 0, i32 0
  %27 = call i32 @pthread_mutex_lock(ptr noundef %26) #8
  store i32 %27, ptr %10, align 4
  %28 = load i32, ptr %10, align 4
  %29 = icmp ne i32 %28, 0
  br i1 %29, label %30, label %33

30:                                               ; preds = %24
  %31 = load i32, ptr %10, align 4
  %32 = call ptr @__errno_location() #9
  store i32 %31, ptr %32, align 4
  call void (ptr, ...) @fatal_abort(ptr noundef @.str.2, ptr noundef @__func__.cbuf_rewind_line) #10
  unreachable

33:                                               ; preds = %24
  call void @llvm.lifetime.end.p0(i64 4, ptr %10) #8
  br label %34

34:                                               ; preds = %33
  br label %35

35:                                               ; preds = %34
  %36 = load ptr, ptr %5, align 8
  %37 = load i32, ptr %6, align 4
  %38 = call i32 @cbuf_find_replay_line(ptr noundef %36, i32 noundef %37, ptr noundef %7, ptr noundef null)
  store i32 %38, ptr %8, align 4
  %39 = load i32, ptr %8, align 4
  %40 = icmp sgt i32 %39, 0
  br i1 %40, label %41, label %64

41:                                               ; preds = %35
  %42 = load i32, ptr %8, align 4
  %43 = load ptr, ptr %5, align 8
  %44 = getelementptr inbounds nuw %struct.cbuf, ptr %43, i32 0, i32 5
  %45 = load i32, ptr %44, align 8
  %46 = add nsw i32 %45, %42
  store i32 %46, ptr %44, align 8
  %47 = load ptr, ptr %5, align 8
  %48 = getelementptr inbounds nuw %struct.cbuf, ptr %47, i32 0, i32 9
  %49 = load i32, ptr %48, align 8
  %50 = load i32, ptr %8, align 4
  %51 = sub nsw i32 %49, %50
  %52 = load ptr, ptr %5, align 8
  %53 = getelementptr inbounds nuw %struct.cbuf, ptr %52, i32 0, i32 4
  %54 = load i32, ptr %53, align 4
  %55 = add nsw i32 %54, 1
  %56 = add nsw i32 %51, %55
  %57 = load ptr, ptr %5, align 8
  %58 = getelementptr inbounds nuw %struct.cbuf, ptr %57, i32 0, i32 4
  %59 = load i32, ptr %58, align 4
  %60 = add nsw i32 %59, 1
  %61 = srem i32 %56, %60
  %62 = load ptr, ptr %5, align 8
  %63 = getelementptr inbounds nuw %struct.cbuf, ptr %62, i32 0, i32 9
  store i32 %61, ptr %63, align 8
  br label %64

64:                                               ; preds = %41, %35
  br label %65

65:                                               ; preds = %64
  call void @llvm.lifetime.start.p0(i64 4, ptr %11) #8
  %66 = load ptr, ptr %5, align 8
  %67 = getelementptr inbounds nuw %struct.cbuf, ptr %66, i32 0, i32 0
  %68 = call i32 @pthread_mutex_unlock(ptr noundef %67) #8
  store i32 %68, ptr %11, align 4
  %69 = load i32, ptr %11, align 4
  %70 = icmp ne i32 %69, 0
  br i1 %70, label %71, label %74

71:                                               ; preds = %65
  %72 = load i32, ptr %11, align 4
  %73 = call ptr @__errno_location() #9
  store i32 %72, ptr %73, align 4
  call void (ptr, ...) @fatal_abort(ptr noundef @.str.3, ptr noundef @__func__.cbuf_rewind_line) #10
  unreachable

74:                                               ; preds = %65
  call void @llvm.lifetime.end.p0(i64 4, ptr %11) #8
  br label %75

75:                                               ; preds = %74
  br label %76

76:                                               ; preds = %75
  %77 = load i32, ptr %8, align 4
  store i32 %77, ptr %4, align 4
  store i32 1, ptr %9, align 4
  br label %78

78:                                               ; preds = %76, %22, %17
  call void @llvm.lifetime.end.p0(i64 4, ptr %8) #8
  %79 = load i32, ptr %4, align 4
  ret i32 %79
}