; Function Attrs: nounwind uwtable
define dso_local i32 @cbuf_rewind_line(ptr noundef %0, i32 noundef %1, i32 noundef %2) local_unnamed_addr #0 {
  %4 = alloca i32, align 4
  store i32 %2, ptr %4, align 4
  %5 = icmp slt i32 %1, 0
  %6 = icmp slt i32 %2, -1
  %or.cond = or i1 %5, %6
  br i1 %or.cond, label %7, label %9

7:                                                ; preds = %3
  %8 = tail call ptr @__errno_location() #14
  store i32 22, ptr %8, align 4
  br label %34

9:                                                ; preds = %3
  %10 = icmp eq i32 %2, 0
  br i1 %10, label %34, label %11

11:                                               ; preds = %9
  %12 = tail call i32 @pthread_mutex_lock(ptr noundef %0) #15
  %.not = icmp eq i32 %12, 0
  br i1 %.not, label %15, label %13

13:                                               ; preds = %11
  %14 = tail call ptr @__errno_location() #14
  store i32 %12, ptr %14, align 4
  tail call void (ptr, ...) @fatal_abort(ptr noundef nonnull @.str.2, ptr noundef nonnull @__func__.cbuf_rewind_line) #16
  unreachable

15:                                               ; preds = %11
  %16 = call fastcc i32 @cbuf_find_replay_line(ptr noundef %0, i32 noundef %1, ptr noundef %4, ptr noundef null)
  %17 = icmp sgt i32 %16, 0
  br i1 %17, label %18, label %30

18:                                               ; preds = %15
  %19 = getelementptr inbounds nuw i8, ptr %0, i64 56
  %20 = load i32, ptr %19, align 8
  %21 = add nsw i32 %20, %16
  store i32 %21, ptr %19, align 8
  %22 = getelementptr inbounds nuw i8, ptr %0, i64 72
  %23 = load i32, ptr %22, align 8
  %24 = sub i32 %23, %16
  %25 = getelementptr inbounds nuw i8, ptr %0, i64 52
  %26 = load i32, ptr %25, align 4
  %27 = add nsw i32 %26, 1
  %28 = add nsw i32 %24, %27
  %29 = srem i32 %28, %27
  store i32 %29, ptr %22, align 8
  br label %30

30:                                               ; preds = %15, %18
  %31 = tail call i32 @pthread_mutex_unlock(ptr noundef %0) #15
  %.not24 = icmp eq i32 %31, 0
  br i1 %.not24, label %34, label %32

32:                                               ; preds = %30
  %33 = tail call ptr @__errno_location() #14
  store i32 %31, ptr %33, align 4
  tail call void (ptr, ...) @fatal_abort(ptr noundef nonnull @.str.3, ptr noundef nonnull @__func__.cbuf_rewind_line) #16
  unreachable

34:                                               ; preds = %30, %9, %7
  %.0 = phi i32 [ -1, %7 ], [ 0, %9 ], [ %16, %30 ]
  ret i32 %.0
}